target datalayout = "e-m:e-p270:32:32-p271:32:32-p272:64:64-i64:64-i128:128-f80:128-n8:16:32:64-S128"
target triple = "x86_64-pc-linux-gnu"

%struct.GVC_s = type { %struct.GVCOMMON_s, ptr, i8, ptr, i32, ptr, ptr, [5 x ptr], [5 x ptr], ptr, ptr, %struct.dtdisc_s_, ptr, %struct.gvplugin_active_textlayout_s, ptr, ptr, ptr, %struct.gvplugin_active_layout_s, ptr, ptr, ptr, %struct.pointf_s, %struct.pointf_s, %struct.pointf_s, %struct.point, %struct.boxf, i32, i8, i8, i8, ptr, ptr, ptr, ptr, i32, ptr, ptr, double, ptr, %struct.color_s, i32 }
%struct.GVCOMMON_s = type { ptr, ptr, i32, i8, i8, ptr, ptr, ptr, i32, ptr, i32 }
%struct.dtdisc_s_ = type { i32, i32, i32, ptr, ptr, ptr }
%struct.gvplugin_active_textlayout_s = type { ptr, i32, ptr }
%struct.gvplugin_active_layout_s = type { ptr, i32, ptr, ptr }
%struct.pointf_s = type { double, double }
%struct.point = type { i32, i32 }
%struct.boxf = type { %struct.pointf_s, %struct.pointf_s }
%struct.color_s = type { %union.anon, i32 }
%union.anon = type { [4 x double] }

@api_names = internal global [5 x ptr] [ptr @.str.69, ptr @.str.70, ptr @.str.71, ptr @.str.72, ptr @.str.73], align 16
@stderr = external global ptr, align 8
@.str.20 = private unnamed_addr constant [36 x i8] c"The plugin configuration file:\0A\09%s\0A\00", align 1
@.str.21 = private unnamed_addr constant [28 x i8] c"\09\09was successfully loaded.\0A\00", align 1
@.str.22 = private unnamed_addr constant [54 x i8] c"\09\09was not found or not usable. No on-demand plugins.\0A\00", align 1
@.str.23 = private unnamed_addr constant [40 x i8] c"Demand loading of plugins is disabled.\0A\00", align 1
@.str.24 = private unnamed_addr constant [13 x i8] c"    %s\09: %s\0A\00", align 1
@.str.25 = private unnamed_addr constant [2 x i8] c":\00", align 1
@.str.26 = private unnamed_addr constant [2 x i8] c"?\00", align 1

; Function Attrs: nounwind uwtable
define void @gvplugin_write_status(ptr noundef %0) #0 {
  %2 = alloca ptr, align 8
  %3 = alloca i32, align 4
  store ptr %0, ptr %2, align 8, !tbaa !14
  call void @llvm.lifetime.start.p0(i64 4, ptr %3) #13
  %4 = load ptr, ptr %2, align 8, !tbaa !14
  %5 = getelementptr inbounds nuw %struct.GVC_s, ptr %4, i32 0, i32 0
  %6 = getelementptr inbounds nuw %struct.GVCOMMON_s, ptr %5, i32 0, i32 10
  %7 = load i32, ptr %6, align 8, !tbaa !35
  %8 = icmp ne i32 %7, 0
  br i1 %8, label %9, label %26

9:                                                ; preds = %1
  %10 = load ptr, ptr @stderr, align 8, !tbaa !58
  %11 = load ptr, ptr %2, align 8, !tbaa !14
  %12 = getelementptr inbounds nuw %struct.GVC_s, ptr %11, i32 0, i32 1
  %13 = load ptr, ptr %12, align 8, !tbaa !89
  %14 = call i32 (ptr, ptr, ...) @fprintf(ptr noundef %10, ptr noundef @.str.20, ptr noundef %13) #13
  %15 = load ptr, ptr %2, align 8, !tbaa !14
  %16 = getelementptr inbounds nuw %struct.GVC_s, ptr %15, i32 0, i32 2
  %17 = load i8, ptr %16, align 8, !tbaa !90, !range !77, !noundef !78
  %18 = trunc i8 %17 to i1
  br i1 %18, label %19, label %22

19:                                               ; preds = %9
  %20 = load ptr, ptr @stderr, align 8, !tbaa !58
  %21 = call i32 (ptr, ptr, ...) @fprintf(ptr noundef %20, ptr noundef @.str.21) #13
  br label %25

22:                                               ; preds = %9
  %23 = load ptr, ptr @stderr, align 8, !tbaa !58
  %24 = call i32 (ptr, ptr, ...) @fprintf(ptr noundef %23, ptr noundef @.str.22) #13
  br label %25

25:                                               ; preds = %22, %19
  br label %29

26:                                               ; preds = %1
  %27 = load ptr, ptr @stderr, align 8, !tbaa !58
  %28 = call i32 (ptr, ptr, ...) @fprintf(ptr noundef %27, ptr noundef @.str.23) #13
  br label %29

29:                                               ; preds = %26, %25
  store i32 0, ptr %3, align 4, !tbaa !12
  br label %30

30:                                               ; preds = %60, %29
  %31 = load i32, ptr %3, align 4, !tbaa !12
  %32 = icmp slt i32 %31, 5
  br i1 %32, label %33, label %63

33:                                               ; preds = %30
  %34 = load ptr, ptr %2, align 8, !tbaa !14
  %35 = getelementptr inbounds nuw %struct.GVC_s, ptr %34, i32 0, i32 0
  %36 = getelementptr inbounds nuw %struct.GVCOMMON_s, ptr %35, i32 0, i32 2
  %37 = load i32, ptr %36, align 8, !tbaa !57
  %38 = icmp sge i32 %37, 2
  br i1 %38, label %39, label %49

39:                                               ; preds = %33
  %40 = load ptr, ptr @stderr, align 8, !tbaa !58
  %41 = load i32, ptr %3, align 4, !tbaa !12
  %42 = sext i32 %41 to i64
  %43 = getelementptr inbounds [5 x ptr], ptr @api_names, i64 0, i64 %42
  %44 = load ptr, ptr %43, align 8, !tbaa !3
  %45 = load ptr, ptr %2, align 8, !tbaa !14
  %46 = load i32, ptr %3, align 4, !tbaa !12
  %47 = call ptr @gvplugin_list(ptr noundef %45, i32 noundef %46, ptr noundef @.str.25)
  %48 = call i32 (ptr, ptr, ...) @fprintf(ptr noundef %40, ptr noundef @.str.24, ptr noundef %44, ptr noundef %47) #13
  br label %59

49:                                               ; preds = %33
  %50 = load ptr, ptr @stderr, align 8, !tbaa !58
  %51 = load i32, ptr %3, align 4, !tbaa !12
  %52 = sext i32 %51 to i64
  %53 = getelementptr inbounds [5 x ptr], ptr @api_names, i64 0, i64 %52
  %54 = load ptr, ptr %53, align 8, !tbaa !3
  %55 = load ptr, ptr %2, align 8, !tbaa !14
  %56 = load i32, ptr %3, align 4, !tbaa !12
  %57 = call ptr @gvplugin_list(ptr noundef %55, i32 noundef %56, ptr noundef @.str.26)
  %58 = call i32 (ptr, ptr, ...) @fprintf(ptr noundef %50, ptr noundef @.str.24, ptr noundef %54, ptr noundef %57) #13
  br label %59

59:                                               ; preds = %49, %39
  br label %60

60:                                               ; preds = %59
  %61 = load i32, ptr %3, align 4, !tbaa !12
  %62 = add nsw i32 %61, 1
  store i32 %62, ptr %3, align 4, !tbaa !12
  br label %30, !llvm.loop !91

63:                                               ; preds = %30
  call void @llvm.lifetime.end.p0(i64 4, ptr %3) #13
  ret void
}