; Function Attrs: cold nounwind uwtable
define void @gvplugin_write_status(ptr noundef readonly captures(none) %0) local_unnamed_addr #15 {
  %2 = getelementptr inbounds nuw i8, ptr %0, i64 64
  %3 = load i32, ptr %2, align 8, !tbaa !22
  %.not = icmp eq i32 %3, 0
  %4 = load ptr, ptr @stderr, align 8, !tbaa !17
  br i1 %.not, label %17, label %5

5:                                                ; preds = %1
  %6 = getelementptr inbounds nuw i8, ptr %0, i64 72
  %7 = load ptr, ptr %6, align 8, !tbaa !66
  %8 = tail call i32 (ptr, ptr, ...) @fprintf(ptr noundef %4, ptr noundef nonnull @.str.20, ptr noundef %7) #27
  %9 = getelementptr inbounds nuw i8, ptr %0, i64 80
  %10 = load i8, ptr %9, align 8, !tbaa !67, !range !68, !noundef !69
  %11 = trunc nuw i8 %10 to i1
  %12 = load ptr, ptr @stderr, align 8, !tbaa !17
  br i1 %11, label %13, label %15

13:                                               ; preds = %5
  %14 = tail call i64 @fwrite(ptr nonnull @.str.21, i64 27, i64 1, ptr %12) #30
  br label %19

15:                                               ; preds = %5
  %16 = tail call i64 @fwrite(ptr nonnull @.str.22, i64 53, i64 1, ptr %12) #30
  br label %19

17:                                               ; preds = %1
  %18 = tail call i64 @fwrite(ptr nonnull @.str.23, i64 39, i64 1, ptr %4) #30
  br label %19

19:                                               ; preds = %13, %15, %17
  %20 = getelementptr inbounds nuw i8, ptr %0, i64 16
  br label %21

21:                                               ; preds = %19, %21
  %indvars.iv = phi i64 [ 0, %19 ], [ %indvars.iv.next, %21 ]
  %22 = load i32, ptr %20, align 8, !tbaa !43
  %23 = icmp sgt i32 %22, 1
  %24 = load ptr, ptr @stderr, align 8, !tbaa !17
  %25 = getelementptr inbounds nuw [5 x ptr], ptr @api_names, i64 0, i64 %indvars.iv
  %26 = load ptr, ptr %25, align 8, !tbaa !3
  %27 = trunc nuw nsw i64 %indvars.iv to i32
  %.str.25..str.26 = select i1 %23, ptr @.str.25, ptr @.str.26
  %28 = tail call ptr @gvplugin_list(ptr noundef nonnull %0, i32 noundef %27, ptr noundef nonnull %.str.25..str.26)
  %29 = tail call i32 (ptr, ptr, ...) @fprintf(ptr noundef %24, ptr noundef nonnull @.str.24, ptr noundef %26, ptr noundef %28) #27
  %indvars.iv.next = add nuw nsw i64 %indvars.iv, 1
  %exitcond.not = icmp eq i64 %indvars.iv.next, 5
  br i1 %exitcond.not, label %30, label %21, !llvm.loop !70

30:                                               ; preds = %21
  ret void
}